target datalayout = "e-m:e-p270:32:32-p271:32:32-p272:64:64-i64:64-i128:128-f80:128-n8:16:32:64-S128"
target triple = "x86_64-pc-linux-gnu"

%class.Jipopt = type { %"class.Ipopt::TNLP.base", ptr, ptr, i32, i32, i32, i32, i32, ptr, ptr, ptr, ptr, ptr, ptr, ptr, ptr, ptr, i8, i8, %"class.Ipopt::SmartPtr", ptr, ptr, ptr, ptr, ptr, ptr, ptr, ptr, ptr, ptr, ptr }
%"class.Ipopt::TNLP.base" = type { %"class.Ipopt::ReferencedObject.base" }
%"class.Ipopt::ReferencedObject.base" = type <{ ptr, i32 }>
%"class.Ipopt::SmartPtr" = type { ptr }
%struct.JNIEnv_ = type { ptr }
%struct.JNINativeInterface_ = type { ptr, ptr, ptr, ptr, ptr, ptr, ptr, ptr, ptr, ptr, ptr, ptr, ptr, ptr, ptr, ptr, ptr, ptr, ptr, ptr, ptr, ptr, ptr, ptr, ptr, ptr, ptr, ptr, ptr, ptr, ptr, ptr, ptr, ptr, ptr, ptr, ptr, ptr, ptr, ptr, ptr, ptr, ptr, ptr, ptr, ptr, ptr, ptr, ptr, ptr, ptr, ptr, ptr, ptr, ptr, ptr, ptr, ptr, ptr, ptr, ptr, ptr, ptr, ptr, ptr, ptr, ptr, ptr, ptr, ptr, ptr, ptr, ptr, ptr, ptr, ptr, ptr, ptr, ptr, ptr, ptr, ptr, ptr, ptr, ptr, ptr, ptr, ptr, ptr, ptr, ptr, ptr, ptr, ptr, ptr, ptr, ptr, ptr, ptr, ptr, ptr, ptr, ptr, ptr, ptr, ptr, ptr, ptr, ptr, ptr, ptr, ptr, ptr, ptr, ptr, ptr, ptr, ptr, ptr, ptr, ptr, ptr, ptr, ptr, ptr, ptr, ptr, ptr, ptr, ptr, ptr, ptr, ptr, ptr, ptr, ptr, ptr, ptr, ptr, ptr, ptr, ptr, ptr, ptr, ptr, ptr, ptr, ptr, ptr, ptr, ptr, ptr, ptr, ptr, ptr, ptr, ptr, ptr, ptr, ptr, ptr, ptr, ptr, ptr, ptr, ptr, ptr, ptr, ptr, ptr, ptr, ptr, ptr, ptr, ptr, ptr, ptr, ptr, ptr, ptr, ptr, ptr, ptr, ptr, ptr, ptr, ptr, ptr, ptr, ptr, ptr, ptr, ptr, ptr, ptr, ptr, ptr, ptr, ptr, ptr, ptr, ptr, ptr, ptr, ptr, ptr, ptr, ptr, ptr, ptr, ptr, ptr, ptr, ptr, ptr, ptr, ptr, ptr, ptr, ptr, ptr, ptr, ptr, ptr, ptr, ptr, ptr, ptr, ptr, ptr, ptr, ptr, ptr, ptr }

; Function Attrs: mustprogress uwtable
define linkonce_odr void @_ZN7JNIEnv_17GetIntArrayRegionEP10_jintArrayiiPi(ptr noundef nonnull align 8 dereferenceable(8) %0, ptr noundef %1, i32 noundef %2, i32 noundef %3, ptr noundef %4) #4 comdat align 2 {
  %6 = alloca ptr, align 8
  %7 = alloca ptr, align 8
  %8 = alloca i32, align 4
  %9 = alloca i32, align 4
  %10 = alloca ptr, align 8
  store ptr %0, ptr %6, align 8, !tbaa !8
  store ptr %1, ptr %7, align 8, !tbaa !108
  store i32 %2, ptr %8, align 4, !tbaa !12
  store i32 %3, ptr %9, align 4, !tbaa !12
  store ptr %4, ptr %10, align 8, !tbaa !95
  %11 = load ptr, ptr %6, align 8
  %12 = getelementptr inbounds nuw %struct.JNIEnv_, ptr %11, i32 0, i32 0
  %13 = load ptr, ptr %12, align 8, !tbaa !84
  %14 = getelementptr inbounds nuw %struct.JNINativeInterface_, ptr %13, i32 0, i32 203
  %15 = load ptr, ptr %14, align 8, !tbaa !111
  %16 = load ptr, ptr %7, align 8, !tbaa !108
  %17 = load i32, ptr %8, align 4, !tbaa !12
  %18 = load i32, ptr %9, align 4, !tbaa !12
  %19 = load ptr, ptr %10, align 8, !tbaa !95
  call void %15(ptr noundef %11, ptr noundef %16, i32 noundef %17, i32 noundef %18, ptr noundef %19)
  ret void
}

; Function Attrs: mustprogress uwtable
define linkonce_odr void @_ZN7JNIEnv_20GetDoubleArrayRegionEP13_jdoubleArrayiiPd(ptr noundef nonnull align 8 dereferenceable(8) %0, ptr noundef %1, i32 noundef %2, i32 noundef %3, ptr noundef %4) #4 comdat align 2 {
  %6 = alloca ptr, align 8
  %7 = alloca ptr, align 8
  %8 = alloca i32, align 4
  %9 = alloca i32, align 4
  %10 = alloca ptr, align 8
  store ptr %0, ptr %6, align 8, !tbaa !8
  store ptr %1, ptr %7, align 8, !tbaa !101
  store i32 %2, ptr %8, align 4, !tbaa !12
  store i32 %3, ptr %9, align 4, !tbaa !12
  store ptr %4, ptr %10, align 8, !tbaa !99
  %11 = load ptr, ptr %6, align 8
  %12 = getelementptr inbounds nuw %struct.JNIEnv_, ptr %11, i32 0, i32 0
  %13 = load ptr, ptr %12, align 8, !tbaa !84
  %14 = getelementptr inbounds nuw %struct.JNINativeInterface_, ptr %13, i32 0, i32 206
  %15 = load ptr, ptr %14, align 8, !tbaa !106
  %16 = load ptr, ptr %7, align 8, !tbaa !101
  %17 = load i32, ptr %8, align 4, !tbaa !12
  %18 = load i32, ptr %9, align 4, !tbaa !12
  %19 = load ptr, ptr %10, align 8, !tbaa !99
  call void %15(ptr noundef %11, ptr noundef %16, i32 noundef %17, i32 noundef %18, ptr noundef %19)
  ret void
}

; Function Attrs: mustprogress uwtable
define linkonce_odr noundef ptr @_ZN7JNIEnv_11NewIntArrayEi(ptr noundef nonnull align 8 dereferenceable(8) %0, i32 noundef %1) #4 comdat align 2 {
  %3 = alloca ptr, align 8
  %4 = alloca i32, align 4
  store ptr %0, ptr %3, align 8, !tbaa !8
  store i32 %1, ptr %4, align 4, !tbaa !12
  %5 = load ptr, ptr %3, align 8
  %6 = getelementptr inbounds nuw %struct.JNIEnv_, ptr %5, i32 0, i32 0
  %7 = load ptr, ptr %6, align 8, !tbaa !84
  %8 = getelementptr inbounds nuw %struct.JNINativeInterface_, ptr %7, i32 0, i32 179
  %9 = load ptr, ptr %8, align 8, !tbaa !110
  %10 = load i32, ptr %4, align 4, !tbaa !12
  %11 = call noundef ptr %9(ptr noundef %5, i32 noundef %10)
  ret ptr %11
}

; Function Attrs: mustprogress uwtable
define linkonce_odr void @_ZN7JNIEnv_20SetDoubleArrayRegionEP13_jdoubleArrayiiPKd(ptr noundef nonnull align 8 dereferenceable(8) %0, ptr noundef %1, i32 noundef %2, i32 noundef %3, ptr noundef %4) #4 comdat align 2 {
  %6 = alloca ptr, align 8
  %7 = alloca ptr, align 8
  %8 = alloca i32, align 4
  %9 = alloca i32, align 4
  %10 = alloca ptr, align 8
  store ptr %0, ptr %6, align 8, !tbaa !8
  store ptr %1, ptr %7, align 8, !tbaa !101
  store i32 %2, ptr %8, align 4, !tbaa !12
  store i32 %3, ptr %9, align 4, !tbaa !12
  store ptr %4, ptr %10, align 8, !tbaa !99
  %11 = load ptr, ptr %6, align 8
  %12 = getelementptr inbounds nuw %struct.JNIEnv_, ptr %11, i32 0, i32 0
  %13 = load ptr, ptr %12, align 8, !tbaa !84
  %14 = getelementptr inbounds nuw %struct.JNINativeInterface_, ptr %13, i32 0, i32 214
  %15 = load ptr, ptr %14, align 8, !tbaa !107
  %16 = load ptr, ptr %7, align 8, !tbaa !101
  %17 = load i32, ptr %8, align 4, !tbaa !12
  %18 = load i32, ptr %9, align 4, !tbaa !12
  %19 = load ptr, ptr %10, align 8, !tbaa !99
  call void %15(ptr noundef %11, ptr noundef %16, i32 noundef %17, i32 noundef %18, ptr noundef %19)
  ret void
}

; Function Attrs: mustprogress uwtable
define noundef zeroext i1 @_ZN6Jipopt6eval_hEiPKdbdiS1_biPiS2_Pd(ptr noundef nonnull align 8 dereferenceable(232) %0, i32 noundef %1, ptr noundef %2, i1 noundef zeroext %3, double noundef %4, i32 noundef %5, ptr noundef %6, i1 noundef zeroext %7, i32 noundef %8, ptr noundef %9, ptr noundef %10, ptr noundef %11) unnamed_addr #4 align 2 {
  %13 = alloca i1, align 1
  %14 = alloca ptr, align 8
  %15 = alloca i32, align 4
  %16 = alloca ptr, align 8
  %17 = alloca i8, align 1
  %18 = alloca double, align 8
  %19 = alloca i32, align 4
  %20 = alloca ptr, align 8
  %21 = alloca i8, align 1
  %22 = alloca i32, align 4
  %23 = alloca ptr, align 8
  %24 = alloca ptr, align 8
  %25 = alloca ptr, align 8
  %26 = alloca ptr, align 8
  %27 = alloca ptr, align 8
  %28 = alloca i8, align 1
  %29 = alloca i8, align 1
  %30 = alloca i32, align 4
  store ptr %0, ptr %14, align 8, !tbaa !3
  store i32 %1, ptr %15, align 4, !tbaa !12
  store ptr %2, ptr %16, align 8, !tbaa !99
  %31 = zext i1 %3 to i8
  store i8 %31, ptr %17, align 1, !tbaa !60
  store double %4, ptr %18, align 8, !tbaa !112
  store i32 %5, ptr %19, align 4, !tbaa !12
  store ptr %6, ptr %20, align 8, !tbaa !99
  %32 = zext i1 %7 to i8
  store i8 %32, ptr %21, align 1, !tbaa !60
  store i32 %8, ptr %22, align 4, !tbaa !12
  store ptr %9, ptr %23, align 8, !tbaa !95
  store ptr %10, ptr %24, align 8, !tbaa !95
  store ptr %11, ptr %25, align 8, !tbaa !99
  %33 = load ptr, ptr %14, align 8
  %34 = load i8, ptr %17, align 1, !tbaa !60, !range !82, !noundef !83
  %35 = trunc i8 %34 to i1
  br i1 %35, label %36, label %46

36:                                               ; preds = %12
  %37 = load ptr, ptr %16, align 8, !tbaa !99
  %38 = icmp ne ptr %37, null
  br i1 %38, label %39, label %46

39:                                               ; preds = %36
  %40 = getelementptr inbounds nuw %class.Jipopt, ptr %33, i32 0, i32 1
  %41 = load ptr, ptr %40, align 8, !tbaa !16
  %42 = getelementptr inbounds nuw %class.Jipopt, ptr %33, i32 0, i32 11
  %43 = load ptr, ptr %42, align 8, !tbaa !33
  %44 = load i32, ptr %15, align 4, !tbaa !12
  %45 = load ptr, ptr %16, align 8, !tbaa !99
  call void @_ZN7JNIEnv_20SetDoubleArrayRegionEP13_jdoubleArrayiiPKd(ptr noundef nonnull align 8 dereferenceable(8) %41, ptr noundef %43, i32 noundef 0, i32 noundef %44, ptr noundef %45)
  br label %46

46:                                               ; preds = %39, %36, %12
  %47 = load i8, ptr %21, align 1, !tbaa !60, !range !82, !noundef !83
  %48 = trunc i8 %47 to i1
  br i1 %48, label %49, label %59

49:                                               ; preds = %46
  %50 = load ptr, ptr %20, align 8, !tbaa !99
  %51 = icmp ne ptr %50, null
  br i1 %51, label %52, label %59

52:                                               ; preds = %49
  %53 = getelementptr inbounds nuw %class.Jipopt, ptr %33, i32 0, i32 1
  %54 = load ptr, ptr %53, align 8, !tbaa !16
  %55 = getelementptr inbounds nuw %class.Jipopt, ptr %33, i32 0, i32 8
  %56 = load ptr, ptr %55, align 8, !tbaa !30
  %57 = load i32, ptr %19, align 4, !tbaa !12
  %58 = load ptr, ptr %20, align 8, !tbaa !99
  call void @_ZN7JNIEnv_20SetDoubleArrayRegionEP13_jdoubleArrayiiPKd(ptr noundef nonnull align 8 dereferenceable(8) %54, ptr noundef %56, i32 noundef 0, i32 noundef %57, ptr noundef %58)
  br label %59

59:                                               ; preds = %52, %49, %46
  call void @llvm.lifetime.start.p0(i64 8, ptr %26) #3
  store ptr null, ptr %26, align 8, !tbaa !108
  call void @llvm.lifetime.start.p0(i64 8, ptr %27) #3
  store ptr null, ptr %27, align 8, !tbaa !108
  %60 = load ptr, ptr %23, align 8, !tbaa !95
  %61 = icmp ne ptr %60, null
  br i1 %61, label %62, label %74

62:                                               ; preds = %59
  %63 = load ptr, ptr %24, align 8, !tbaa !95
  %64 = icmp ne ptr %63, null
  br i1 %64, label %65, label %74

65:                                               ; preds = %62
  %66 = getelementptr inbounds nuw %class.Jipopt, ptr %33, i32 0, i32 1
  %67 = load ptr, ptr %66, align 8, !tbaa !16
  %68 = load i32, ptr %22, align 4, !tbaa !12
  %69 = call noundef ptr @_ZN7JNIEnv_11NewIntArrayEi(ptr noundef nonnull align 8 dereferenceable(8) %67, i32 noundef %68)
  store ptr %69, ptr %26, align 8, !tbaa !108
  %70 = getelementptr inbounds nuw %class.Jipopt, ptr %33, i32 0, i32 1
  %71 = load ptr, ptr %70, align 8, !tbaa !16
  %72 = load i32, ptr %22, align 4, !tbaa !12
  %73 = call noundef ptr @_ZN7JNIEnv_11NewIntArrayEi(ptr noundef nonnull align 8 dereferenceable(8) %71, i32 noundef %72)
  store ptr %73, ptr %27, align 8, !tbaa !108
  br label %74

74:                                               ; preds = %65, %62, %59
  call void @llvm.lifetime.start.p0(i64 1, ptr %28) #3
  %75 = load i8, ptr %17, align 1, !tbaa !60, !range !82, !noundef !83
  %76 = trunc i8 %75 to i1
  %77 = zext i1 %76 to i8
  store i8 %77, ptr %28, align 1, !tbaa !105
  call void @llvm.lifetime.start.p0(i64 1, ptr %29) #3
  %78 = load i8, ptr %21, align 1, !tbaa !60, !range !82, !noundef !83
  %79 = trunc i8 %78 to i1
  %80 = zext i1 %79 to i8
  store i8 %80, ptr %29, align 1, !tbaa !105
  %81 = getelementptr inbounds nuw %class.Jipopt, ptr %33, i32 0, i32 1
  %82 = load ptr, ptr %81, align 8, !tbaa !16
  %83 = getelementptr inbounds nuw %class.Jipopt, ptr %33, i32 0, i32 2
  %84 = load ptr, ptr %83, align 8, !tbaa !24
  %85 = getelementptr inbounds nuw %class.Jipopt, ptr %33, i32 0, i32 26
  %86 = load ptr, ptr %85, align 8, !tbaa !49
  %87 = load i32, ptr %15, align 4, !tbaa !12
  %88 = getelementptr inbounds nuw %class.Jipopt, ptr %33, i32 0, i32 11
  %89 = load ptr, ptr %88, align 8, !tbaa !33
  %90 = load i8, ptr %28, align 1, !tbaa !105
  %91 = zext i8 %90 to i32
  %92 = load double, ptr %18, align 8, !tbaa !112
  %93 = load i32, ptr %19, align 4, !tbaa !12
  %94 = getelementptr inbounds nuw %class.Jipopt, ptr %33, i32 0, i32 8
  %95 = load ptr, ptr %94, align 8, !tbaa !30
  %96 = load i8, ptr %29, align 1, !tbaa !105
  %97 = zext i8 %96 to i32
  %98 = load i32, ptr %22, align 4, !tbaa !12
  %99 = load ptr, ptr %26, align 8, !tbaa !108
  %100 = load ptr, ptr %27, align 8, !tbaa !108
  %101 = load ptr, ptr %25, align 8, !tbaa !99
  %102 = icmp eq ptr %101, null
  br i1 %102, label %103, label %104

103:                                              ; preds = %74
  br label %107

104:                                              ; preds = %74
  %105 = getelementptr inbounds nuw %class.Jipopt, ptr %33, i32 0, i32 16
  %106 = load ptr, ptr %105, align 8, !tbaa !38
  br label %107

107:                                              ; preds = %104, %103
  %108 = phi ptr [ null, %103 ], [ %106, %104 ]
  %109 = call noundef zeroext i8 (ptr, ptr, ptr, ...) @_ZN7JNIEnv_17CallBooleanMethodEP8_jobjectP10_jmethodIDz(ptr noundef nonnull align 8 dereferenceable(8) %82, ptr noundef %84, ptr noundef %86, i32 noundef %87, ptr noundef %89, i32 noundef %91, double noundef %92, i32 noundef %93, ptr noundef %95, i32 noundef %97, i32 noundef %98, ptr noundef %99, ptr noundef %100, ptr noundef %108)
  %110 = icmp ne i8 %109, 0
  br i1 %110, label %112, label %111

111:                                              ; preds = %107
  store i1 false, ptr %13, align 1
  store i32 1, ptr %30, align 4
  br label %140

112:                                              ; preds = %107
  %113 = load ptr, ptr %25, align 8, !tbaa !99
  %114 = icmp ne ptr %113, null
  br i1 %114, label %115, label %122

115:                                              ; preds = %112
  %116 = getelementptr inbounds nuw %class.Jipopt, ptr %33, i32 0, i32 1
  %117 = load ptr, ptr %116, align 8, !tbaa !16
  %118 = getelementptr inbounds nuw %class.Jipopt, ptr %33, i32 0, i32 16
  %119 = load ptr, ptr %118, align 8, !tbaa !38
  %120 = load i32, ptr %22, align 4, !tbaa !12
  %121 = load ptr, ptr %25, align 8, !tbaa !99
  call void @_ZN7JNIEnv_20GetDoubleArrayRegionEP13_jdoubleArrayiiPd(ptr noundef nonnull align 8 dereferenceable(8) %117, ptr noundef %119, i32 noundef 0, i32 noundef %120, ptr noundef %121)
  br label %122

122:                                              ; preds = %115, %112
  %123 = load ptr, ptr %23, align 8, !tbaa !95
  %124 = icmp ne ptr %123, null
  br i1 %124, label %125, label %139

125:                                              ; preds = %122
  %126 = load ptr, ptr %24, align 8, !tbaa !95
  %127 = icmp ne ptr %126, null
  br i1 %127, label %128, label %139

128:                                              ; preds = %125
  %129 = getelementptr inbounds nuw %class.Jipopt, ptr %33, i32 0, i32 1
  %130 = load ptr, ptr %129, align 8, !tbaa !16
  %131 = load ptr, ptr %26, align 8, !tbaa !108
  %132 = load i32, ptr %22, align 4, !tbaa !12
  %133 = load ptr, ptr %23, align 8, !tbaa !95
  call void @_ZN7JNIEnv_17GetIntArrayRegionEP10_jintArrayiiPi(ptr noundef nonnull align 8 dereferenceable(8) %130, ptr noundef %131, i32 noundef 0, i32 noundef %132, ptr noundef %133)
  %134 = getelementptr inbounds nuw %class.Jipopt, ptr %33, i32 0, i32 1
  %135 = load ptr, ptr %134, align 8, !tbaa !16
  %136 = load ptr, ptr %27, align 8, !tbaa !108
  %137 = load i32, ptr %22, align 4, !tbaa !12
  %138 = load ptr, ptr %24, align 8, !tbaa !95
  call void @_ZN7JNIEnv_17GetIntArrayRegionEP10_jintArrayiiPi(ptr noundef nonnull align 8 dereferenceable(8) %135, ptr noundef %136, i32 noundef 0, i32 noundef %137, ptr noundef %138)
  br label %139

139:                                              ; preds = %128, %125, %122
  store i1 true, ptr %13, align 1
  store i32 1, ptr %30, align 4
  br label %140

140:                                              ; preds = %139, %111
  call void @llvm.lifetime.end.p0(i64 1, ptr %29) #3
  call void @llvm.lifetime.end.p0(i64 1, ptr %28) #3
  call void @llvm.lifetime.end.p0(i64 8, ptr %27) #3
  call void @llvm.lifetime.end.p0(i64 8, ptr %26) #3
  %141 = load i1, ptr %13, align 1
  ret i1 %141
}