; Function Attrs: mustprogress uwtable
define noundef zeroext i1 @_ZN6Jipopt6eval_hEiPKdbdiS1_biPiS2_Pd(ptr noundef nonnull readonly align 8 captures(none) dereferenceable(232) %0, i32 noundef %1, ptr noundef %2, i1 noundef zeroext %3, double noundef %4, i32 noundef %5, ptr noundef %6, i1 noundef zeroext %7, i32 noundef %8, ptr noundef %9, ptr noundef %10, ptr noundef %11) unnamed_addr #3 align 2 {
  %13 = icmp ne ptr %2, null
  %or.cond = and i1 %3, %13
  br i1 %or.cond, label %14, label %22

14:                                               ; preds = %12
  %15 = getelementptr inbounds nuw i8, ptr %0, i64 16
  %16 = load ptr, ptr %15, align 8, !tbaa !10
  %17 = getelementptr inbounds nuw i8, ptr %0, i64 80
  %18 = load ptr, ptr %17, align 8, !tbaa !94
  %19 = load ptr, ptr %16, align 8, !tbaa !48
  %20 = getelementptr inbounds nuw i8, ptr %19, i64 1712
  %21 = load ptr, ptr %20, align 8, !tbaa !98
  tail call void %21(ptr noundef nonnull align 8 dereferenceable(8) %16, ptr noundef %18, i32 noundef 0, i32 noundef %1, ptr noundef nonnull %2)
  br label %22

22:                                               ; preds = %14, %12
  %23 = icmp ne ptr %6, null
  %or.cond3 = and i1 %7, %23
  br i1 %or.cond3, label %24, label %32

24:                                               ; preds = %22
  %25 = getelementptr inbounds nuw i8, ptr %0, i64 16
  %26 = load ptr, ptr %25, align 8, !tbaa !10
  %27 = getelementptr inbounds nuw i8, ptr %0, i64 56
  %28 = load ptr, ptr %27, align 8, !tbaa !97
  %29 = load ptr, ptr %26, align 8, !tbaa !48
  %30 = getelementptr inbounds nuw i8, ptr %29, i64 1712
  %31 = load ptr, ptr %30, align 8, !tbaa !98
  tail call void %31(ptr noundef nonnull align 8 dereferenceable(8) %26, ptr noundef %28, i32 noundef 0, i32 noundef %5, ptr noundef nonnull %6)
  br label %32

32:                                               ; preds = %24, %22
  %33 = icmp ne ptr %9, null
  %34 = icmp ne ptr %10, null
  %or.cond5 = and i1 %33, %34
  br i1 %or.cond5, label %35, label %47

35:                                               ; preds = %32
  %36 = getelementptr inbounds nuw i8, ptr %0, i64 16
  %37 = load ptr, ptr %36, align 8, !tbaa !10
  %38 = load ptr, ptr %37, align 8, !tbaa !48
  %39 = getelementptr inbounds nuw i8, ptr %38, i64 1432
  %40 = load ptr, ptr %39, align 8, !tbaa !102
  %41 = tail call noundef ptr %40(ptr noundef nonnull align 8 dereferenceable(8) %37, i32 noundef %8)
  %42 = load ptr, ptr %36, align 8, !tbaa !10
  %43 = load ptr, ptr %42, align 8, !tbaa !48
  %44 = getelementptr inbounds nuw i8, ptr %43, i64 1432
  %45 = load ptr, ptr %44, align 8, !tbaa !102
  %46 = tail call noundef ptr %45(ptr noundef nonnull align 8 dereferenceable(8) %42, i32 noundef %8)
  br label %47

47:                                               ; preds = %35, %32
  %.043 = phi ptr [ %46, %35 ], [ null, %32 ]
  %.042 = phi ptr [ %41, %35 ], [ null, %32 ]
  %48 = getelementptr inbounds nuw i8, ptr %0, i64 16
  %49 = load ptr, ptr %48, align 8, !tbaa !10
  %50 = getelementptr inbounds nuw i8, ptr %0, i64 24
  %51 = load ptr, ptr %50, align 8, !tbaa !20
  %52 = getelementptr inbounds nuw i8, ptr %0, i64 192
  %53 = load ptr, ptr %52, align 8, !tbaa !60
  %54 = getelementptr inbounds nuw i8, ptr %0, i64 80
  %55 = load ptr, ptr %54, align 8, !tbaa !94
  %56 = zext i1 %3 to i32
  %57 = getelementptr inbounds nuw i8, ptr %0, i64 56
  %58 = load ptr, ptr %57, align 8, !tbaa !97
  %59 = zext i1 %7 to i32
  %60 = icmp eq ptr %11, null
  %61 = getelementptr inbounds nuw i8, ptr %0, i64 120
  %62 = load ptr, ptr %61, align 8
  %63 = select i1 %60, ptr null, ptr %62
  %64 = tail call noundef zeroext i8 (ptr, ptr, ptr, ...) @_ZN7JNIEnv_17CallBooleanMethodEP8_jobjectP10_jmethodIDz(ptr noundef nonnull align 8 dereferenceable(8) %49, ptr noundef %51, ptr noundef %53, i32 noundef %1, ptr noundef %55, i32 noundef %56, double noundef %4, i32 noundef %5, ptr noundef %58, i32 noundef %59, i32 noundef %8, ptr noundef %.042, ptr noundef %.043, ptr noundef %63)
  %.not = icmp ne i8 %64, 0
  br i1 %.not, label %65, label %82

65:                                               ; preds = %47
  br i1 %60, label %72, label %66

66:                                               ; preds = %65
  %67 = load ptr, ptr %48, align 8, !tbaa !10
  %68 = load ptr, ptr %61, align 8, !tbaa !105
  %69 = load ptr, ptr %67, align 8, !tbaa !48
  %70 = getelementptr inbounds nuw i8, ptr %69, i64 1648
  %71 = load ptr, ptr %70, align 8, !tbaa !92
  tail call void %71(ptr noundef nonnull align 8 dereferenceable(8) %67, ptr noundef %68, i32 noundef 0, i32 noundef %8, ptr noundef nonnull %11)
  br label %72

72:                                               ; preds = %66, %65
  br i1 %or.cond5, label %73, label %82

73:                                               ; preds = %72
  %74 = load ptr, ptr %48, align 8, !tbaa !10
  %75 = load ptr, ptr %74, align 8, !tbaa !48
  %76 = getelementptr inbounds nuw i8, ptr %75, i64 1624
  %77 = load ptr, ptr %76, align 8, !tbaa !104
  tail call void %77(ptr noundef nonnull align 8 dereferenceable(8) %74, ptr noundef %.042, i32 noundef 0, i32 noundef %8, ptr noundef nonnull %9)
  %78 = load ptr, ptr %48, align 8, !tbaa !10
  %79 = load ptr, ptr %78, align 8, !tbaa !48
  %80 = getelementptr inbounds nuw i8, ptr %79, i64 1624
  %81 = load ptr, ptr %80, align 8, !tbaa !104
  tail call void %81(ptr noundef nonnull align 8 dereferenceable(8) %78, ptr noundef %.043, i32 noundef 0, i32 noundef %8, ptr noundef nonnull %10)
  br label %82

82:                                               ; preds = %72, %73, %47
  ret i1 %.not
}